Certificate:
    Data:
        Version: 3 (0x2)
        Serial Number: 1 (0x1)
    Signature Algorithm: sha256WithRSAEncryption
        Issuer: C=CN, ST=Some-State, O=Internet Widgits Pty Ltd, CN=searchstar/emailAddress=632863986@qq.com
        Validity
            Not Before: Apr 24 04:34:01 2020 GMT
            Not After : Apr 24 04:34:01 2021 GMT
        Subject: C=CN, ST=Some-State, O=Internet Widgits Pty Ltd, CN=searchstar/emailAddress=632863986@qq.com
        Subject Public Key Info:
            Public Key Algorithm: rsaEncryption
                Public-Key: (1024 bit)
                Modulus:
                    00:cd:4f:ca:77:03:8c:7e:80:1c:b7:e8:10:de:26:
                    a7:e3:c5:e4:21:67:4e:13:be:9f:a4:53:67:fb:c2:
                    38:62:fd:3f:12:90:18:79:4a:b9:5f:1c:9b:90:72:
                    2e:cc:b5:40:98:f0:f2:da:a6:53:9f:e2:cd:cd:c6:
                    48:f1:ac:80:bf:7b:e9:89:63:51:ff:79:96:dd:dc:
                    cb:8f:53:d5:f1:0f:bd:b1:fe:c2:95:dd:4d:99:ec:
                    70:e3:e6:b9:ff:d3:76:e7:3c:b8:13:21:44:b6:a5:
                    49:04:ef:d4:81:a6:65:cf:78:61:d2:a9:56:fe:38:
                    4f:2f:c7:3f:19:45:5c:e0:03
                Exponent: 65537 (0x10001)
        X509v3 extensions:
            X509v3 Basic Constraints: 
                CA:FALSE
            Netscape Comment: 
                OpenSSL Generated Certificate
            X509v3 Subject Key Identifier: 
                7F:1A:EC:A6:67:A3:B8:DE:56:91:34:11:5B:48:68:A7:50:1C:0E:CD
            X509v3 Authority Key Identifier: 
                DirName:/C=CN/ST=Some-State/O=Internet Widgits Pty Ltd/CN=searchstar/emailAddress=632863986@qq.com
                serial:BA:78:6F:2A:35:63:BC:80

    Signature Algorithm: sha256WithRSAEncryption
         7a:ed:59:14:6a:83:e3:f3:e7:ae:5e:06:ec:88:98:c4:cf:a7:
         fb:c2:3f:e5:d7:09:ca:9d:60:69:ed:73:97:37:24:53:63:23:
         68:85:a3:01:e7:dd:78:f7:97:37:c8:de:63:a5:4a:7e:2e:ca:
         fa:69:06:bb:62:09:bc:8a:26:ca:51:66:36:52:db:16:31:57:
         e2:6b:9c:a5:b1:71:6c:3a:18:06:aa:e5:a9:49:66:38:3b:9a:
         ff:16:9d:d4:ba:0b:12:35:10:fa:79:10:2c:8c:55:5e:04:81:
         cf:a1:1d:49:5e:18:d3:85:bb:25:ad:77:7b:2f:3f:90:27:25:
         42:b9:f0:b5:00:70:a9:fc:ed:22:69:b7:9c:85:74:01:b8:87:
         1f:c7:d0:8d:96:c7:42:d9:9a:a6:f2:ac:8f:9f:6b:f8:33:18:
         ad:8f:17:63:14:95:fc:a1:e7:f4:10:3e:7a:bd:20:5b:6d:f5:
         22:a6:9c:26:97:cf:08:6f:f5:df:fd:6a:64:73:c1:6f:95:65:
         04:fa:65:dd:d1:4b:38:4c:87:2e:8b:09:d7:90:88:fc:de:21:
         59:a2:63:84:70:b2:e9:b7:7d:a1:d8:a9:b8:d6:b5:7d:70:01:
         51:c7:9d:e2:65:af:90:ff:f5:55:02:f0:d4:8f:c7:f1:b5:59:
         58:90:fe:89
-----BEGIN CERTIFICATE-----
MIID4zCCAsugAwIBAgIBATANBgkqhkiG9w0BAQsFADB7MQswCQYDVQQGEwJDTjET
MBEGA1UECAwKU29tZS1TdGF0ZTEhMB8GA1UECgwYSW50ZXJuZXQgV2lkZ2l0cyBQ
dHkgTHRkMRMwEQYDVQQDDApzZWFyY2hzdGFyMR8wHQYJKoZIhvcNAQkBFhA2MzI4
NjM5ODZAcXEuY29tMB4XDTIwMDQyNDA0MzQwMVoXDTIxMDQyNDA0MzQwMVowezEL
MAkGA1UEBhMCQ04xEzARBgNVBAgMClNvbWUtU3RhdGUxITAfBgNVBAoMGEludGVy
bmV0IFdpZGdpdHMgUHR5IEx0ZDETMBEGA1UEAwwKc2VhcmNoc3RhcjEfMB0GCSqG
SIb3DQEJARYQNjMyODYzOTg2QHFxLmNvbTCBnzANBgkqhkiG9w0BAQEFAAOBjQAw
gYkCgYEAzU/KdwOMfoAct+gQ3ian48XkIWdOE76fpFNn+8I4Yv0/EpAYeUq5Xxyb
kHIuzLVAmPDy2qZTn+LNzcZI8ayAv3vpiWNR/3mW3dzLj1PV8Q+9sf7Cld1Nmexw
4+a5/9N25zy4EyFEtqVJBO/UgaZlz3hh0qlW/jhPL8c/GUVc4AMCAwEAAaOB9TCB
8jAJBgNVHRMEAjAAMCwGCWCGSAGG+EIBDQQfFh1PcGVuU1NMIEdlbmVyYXRlZCBD
ZXJ0aWZpY2F0ZTAdBgNVHQ4EFgQUfxrspmejuN5WkTQRW0hop1AcDs0wgZcGA1Ud
IwSBjzCBjKF/pH0wezELMAkGA1UEBhMCQ04xEzARBgNVBAgMClNvbWUtU3RhdGUx
ITAfBgNVBAoMGEludGVybmV0IFdpZGdpdHMgUHR5IEx0ZDETMBEGA1UEAwwKc2Vh
cmNoc3RhcjEfMB0GCSqGSIb3DQEJARYQNjMyODYzOTg2QHFxLmNvbYIJALp4byo1
Y7yAMA0GCSqGSIb3DQEBCwUAA4IBAQB67VkUaoPj8+euXgbsiJjEz6f7wj/l1wnK
nWBp7XOXNyRTYyNohaMB591495c3yN5jpUp+Lsr6aQa7Ygm8iibKUWY2UtsWMVfi
a5ylsXFsOhgGquWpSWY4O5r/Fp3UugsSNRD6eRAsjFVeBIHPoR1JXhjThbslrXd7
Lz+QJyVCufC1AHCp/O0iabechXQBuIcfx9CNlsdC2Zqm8qyPn2v4MxitjxdjFJX8
oef0ED56vSBbbfUippwml88Ib/Xf/Wpkc8FvlWUE+mXd0Us4TIcuiwnXkIj83iFZ
omOEcLLpt32h2Km41rV9cAFRx53iZa+Q//VVAvDUj8fxtVlYkP6J
-----END CERTIFICATE-----
-----BEGIN RSA PRIVATE KEY-----
MIICXgIBAAKBgQDNT8p3A4x+gBy36BDeJqfjxeQhZ04Tvp+kU2f7wjhi/T8SkBh5
SrlfHJuQci7MtUCY8PLaplOf4s3NxkjxrIC/e+mJY1H/eZbd3MuPU9XxD72x/sKV
3U2Z7HDj5rn/03bnPLgTIUS2pUkE79SBpmXPeGHSqVb+OE8vxz8ZRVzgAwIDAQAB
AoGAeUDjcRBufBNLYq2ysJCh3Np1lei96tlMzS7ZHY2h4YxxIJRrb87a1bo+gbt9
ujZdlTXQJ6PNhYLcSugNEnXvfphxdP4oNaxzToe4FZ45IlwZfXpnwB+1kH1++9sJ
RflSa//XadhKc34OFWT/O0UwYpjbLtaXgUCqcsdZ8/IosVECQQDmtBRawLR8y950
Lab+Tskwyto4UPLf89Gu1SFZ9641OcRsQND4tZMfzp6ekEZK9i/7IJ6url8wTSz8
v/O63OMrAkEA49L05NEbcNMnLeR6ZggnaAcJ4nCkHGtayHFLfs1pIJ7e85qgU2dN
owhqVOnUAIAnM/wbcuUMiKKGvoiR34bqiQJBAMNag83hVjRC0ekg60J25oipjSWY
7kDTjp/0G9y6DctGUly0ef/QiXeql8h/NPavBywokBYs06/r+gdAZ5u5BacCQQCT
RoZlfQAeOYH0WuT9HHxM9W/gYCzW6ldviD3jpOo22j0KgYTvJbK8l+4VImuYP0AY
jPs5lPQ7R8WPWj3ioBbxAkEAhGiGoh8Rb4LerWhJZJe3dRWfR9m6vVBwItjVJ0Zh
yrInbYbwb49QB7uZYRQZJE5HElkbEU+vcrMS8UX0x8qNtQ==
-----END RSA PRIVATE KEY-----
